(lp0
S'poi'
p1
aS'salary'
p2
aS'total_gain'
p3
aS'bonus'
p4
aS'director_fees'
p5
aS'total_stock_value'
p6
aS'expenses'
p7
aS'fraction_to_poi'
p8
aS'exercised_stock_options'
p9
aS'other'
p10
aS'fraction_poi'
p11
aS'deferred_income'
p12
aS'shared_receipt_with_poi'
p13
aS'restricted_stock'
p14
aS'long_term_incentive'
p15
a.